target datalayout = "e-m:e-p270:32:32-p271:32:32-p272:64:64-i64:64-i128:128-f80:128-n8:16:32:64-S128"
target triple = "x86_64-pc-linux-gnu"

%struct.passwd = type { ptr, ptr, i32, i32, ptr, ptr, ptr }

@.str = private unnamed_addr constant [5 x i8] c"HOME\00", align 1
@.str.1 = private unnamed_addr constant [11 x i8] c"%s%s.netrc\00", align 1
@.str.2 = private unnamed_addr constant [2 x i8] c"/\00", align 1
@Curl_cfree = external global ptr, align 8

; Function Attrs: nounwind uwtable
define hidden i32 @Curl_parsenetrc(ptr noundef %0, ptr noundef %1, ptr noundef %2, ptr noundef %3, ptr noundef %4) #0 {
  %6 = alloca i32, align 4
  %7 = alloca ptr, align 8
  %8 = alloca ptr, align 8
  %9 = alloca ptr, align 8
  %10 = alloca ptr, align 8
  %11 = alloca ptr, align 8
  %12 = alloca i32, align 4
  %13 = alloca ptr, align 8
  %14 = alloca [1024 x i8], align 16
  %15 = alloca ptr, align 8
  %16 = alloca ptr, align 8
  %17 = alloca %struct.passwd, align 8
  %18 = alloca ptr, align 8
  %19 = alloca i32, align 4
  store ptr %0, ptr %7, align 8, !tbaa !3
  store ptr %1, ptr %8, align 8, !tbaa !8
  store ptr %2, ptr %9, align 8, !tbaa !10
  store ptr %3, ptr %10, align 8, !tbaa !10
  store ptr %4, ptr %11, align 8, !tbaa !8
  call void @llvm.lifetime.start.p0(i64 4, ptr %12) #5
  store i32 1, ptr %12, align 4, !tbaa !12
  call void @llvm.lifetime.start.p0(i64 8, ptr %13) #5
  store ptr null, ptr %13, align 8, !tbaa !8
  %20 = load ptr, ptr %11, align 8, !tbaa !8
  %21 = icmp ne ptr %20, null
  br i1 %21, label %67, label %22

22:                                               ; preds = %5
  call void @llvm.lifetime.start.p0(i64 1024, ptr %14) #5
  call void @llvm.lifetime.start.p0(i64 8, ptr %15) #5
  store ptr null, ptr %15, align 8, !tbaa !8
  call void @llvm.lifetime.start.p0(i64 8, ptr %16) #5
  %23 = call ptr @curl_getenv(ptr noundef @.str)
  store ptr %23, ptr %16, align 8, !tbaa !8
  %24 = load ptr, ptr %16, align 8, !tbaa !8
  %25 = icmp ne ptr %24, null
  br i1 %25, label %26, label %28

26:                                               ; preds = %22
  %27 = load ptr, ptr %16, align 8, !tbaa !8
  store ptr %27, ptr %15, align 8, !tbaa !8
  br label %40

28:                                               ; preds = %22
  call void @llvm.lifetime.start.p0(i64 48, ptr %17) #5
  call void @llvm.lifetime.start.p0(i64 8, ptr %18) #5
  %29 = call i32 @geteuid() #5
  %30 = getelementptr inbounds [1024 x i8], ptr %14, i64 0, i64 0
  %31 = call i32 @getpwuid_r(i32 noundef %29, ptr noundef %17, ptr noundef %30, i64 noundef 1024, ptr noundef %18)
  %32 = icmp ne i32 %31, 0
  br i1 %32, label %39, label %33

33:                                               ; preds = %28
  %34 = load ptr, ptr %18, align 8, !tbaa !14
  %35 = icmp ne ptr %34, null
  br i1 %35, label %36, label %39

36:                                               ; preds = %33
  %37 = getelementptr inbounds nuw %struct.passwd, ptr %17, i32 0, i32 5
  %38 = load ptr, ptr %37, align 8, !tbaa !16
  store ptr %38, ptr %15, align 8, !tbaa !8
  br label %39

39:                                               ; preds = %36, %33, %28
  call void @llvm.lifetime.end.p0(i64 8, ptr %18) #5
  call void @llvm.lifetime.end.p0(i64 48, ptr %17) #5
  br label %40

40:                                               ; preds = %39, %26
  %41 = load ptr, ptr %15, align 8, !tbaa !8
  %42 = icmp ne ptr %41, null
  br i1 %42, label %45, label %43

43:                                               ; preds = %40
  %44 = load i32, ptr %12, align 4, !tbaa !12
  store i32 %44, ptr %6, align 4
  store i32 1, ptr %19, align 4
  br label %64

45:                                               ; preds = %40
  %46 = load ptr, ptr %15, align 8, !tbaa !8
  %47 = call ptr (ptr, ...) @curl_maprintf(ptr noundef @.str.1, ptr noundef %46, ptr noundef @.str.2)
  store ptr %47, ptr %13, align 8, !tbaa !8
  %48 = load ptr, ptr %13, align 8, !tbaa !8
  %49 = icmp ne ptr %48, null
  br i1 %49, label %53, label %50

50:                                               ; preds = %45
  %51 = load ptr, ptr @Curl_cfree, align 8, !tbaa !18
  %52 = load ptr, ptr %16, align 8, !tbaa !8
  call void %51(ptr noundef %52)
  store i32 -1, ptr %6, align 4
  store i32 1, ptr %19, align 4
  br label %64

53:                                               ; preds = %45
  %54 = load ptr, ptr %7, align 8, !tbaa !3
  %55 = load ptr, ptr %8, align 8, !tbaa !8
  %56 = load ptr, ptr %9, align 8, !tbaa !10
  %57 = load ptr, ptr %10, align 8, !tbaa !10
  %58 = load ptr, ptr %13, align 8, !tbaa !8
  %59 = call i32 @parsenetrc(ptr noundef %54, ptr noundef %55, ptr noundef %56, ptr noundef %57, ptr noundef %58)
  store i32 %59, ptr %12, align 4, !tbaa !12
  %60 = load ptr, ptr @Curl_cfree, align 8, !tbaa !18
  %61 = load ptr, ptr %13, align 8, !tbaa !8
  call void %60(ptr noundef %61)
  %62 = load ptr, ptr @Curl_cfree, align 8, !tbaa !18
  %63 = load ptr, ptr %16, align 8, !tbaa !8
  call void %62(ptr noundef %63)
  store i32 0, ptr %19, align 4
  br label %64

64:                                               ; preds = %53, %50, %43
  call void @llvm.lifetime.end.p0(i64 8, ptr %16) #5
  call void @llvm.lifetime.end.p0(i64 8, ptr %15) #5
  call void @llvm.lifetime.end.p0(i64 1024, ptr %14) #5
  %65 = load i32, ptr %19, align 4
  switch i32 %65, label %76 [
    i32 0, label %66
  ]

66:                                               ; preds = %64
  br label %74

67:                                               ; preds = %5
  %68 = load ptr, ptr %7, align 8, !tbaa !3
  %69 = load ptr, ptr %8, align 8, !tbaa !8
  %70 = load ptr, ptr %9, align 8, !tbaa !10
  %71 = load ptr, ptr %10, align 8, !tbaa !10
  %72 = load ptr, ptr %11, align 8, !tbaa !8
  %73 = call i32 @parsenetrc(ptr noundef %68, ptr noundef %69, ptr noundef %70, ptr noundef %71, ptr noundef %72)
  store i32 %73, ptr %12, align 4, !tbaa !12
  br label %74

74:                                               ; preds = %67, %66
  %75 = load i32, ptr %12, align 4, !tbaa !12
  store i32 %75, ptr %6, align 4
  store i32 1, ptr %19, align 4
  br label %76

76:                                               ; preds = %74, %64
  call void @llvm.lifetime.end.p0(i64 8, ptr %13) #5
  call void @llvm.lifetime.end.p0(i64 4, ptr %12) #5
  %77 = load i32, ptr %6, align 4
  ret i32 %77
}