; Function Attrs: nounwind uwtable
define hidden i32 @Curl_parsenetrc(ptr noundef %0, ptr noundef %1, ptr noundef captures(none) %2, ptr noundef writeonly captures(none) %3, ptr noundef readonly %4) local_unnamed_addr #0 {
  %6 = alloca [1024 x i8], align 16
  %7 = alloca %struct.passwd, align 8
  %8 = alloca ptr, align 8
  %.not = icmp eq ptr %4, null
  br i1 %.not, label %9, label %26

9:                                                ; preds = %5
  call void @llvm.lifetime.start.p0(i64 1024, ptr nonnull %6) #6
  %10 = tail call ptr @curl_getenv(ptr noundef nonnull @.str) #6
  %.not31 = icmp eq ptr %10, null
  br i1 %.not31, label %11, label %.thread36

11:                                               ; preds = %9
  call void @llvm.lifetime.start.p0(i64 48, ptr nonnull %7) #6
  call void @llvm.lifetime.start.p0(i64 8, ptr nonnull %8) #6
  %12 = tail call i32 @geteuid() #6
  %13 = call i32 @getpwuid_r(i32 noundef %12, ptr noundef nonnull %7, ptr noundef nonnull %6, i64 noundef 1024, ptr noundef nonnull %8) #6
  %14 = icmp ne i32 %13, 0
  %15 = load ptr, ptr %8, align 8
  %16 = icmp eq ptr %15, null
  %or.cond.not47 = select i1 %14, i1 true, i1 %16
  %17 = getelementptr inbounds nuw i8, ptr %7, i64 32
  %18 = load ptr, ptr %17, align 8
  call void @llvm.lifetime.end.p0(i64 8, ptr nonnull %8) #6
  call void @llvm.lifetime.end.p0(i64 48, ptr nonnull %7) #6
  %.not32 = icmp eq ptr %18, null
  %or.cond44 = select i1 %or.cond.not47, i1 true, i1 %.not32
  br i1 %or.cond44, label %.thread40, label %.thread36

.thread36:                                        ; preds = %11, %9
  %.02439 = phi ptr [ %10, %9 ], [ %18, %11 ]
  %19 = call ptr (ptr, ...) @curl_maprintf(ptr noundef nonnull @.str.1, ptr noundef nonnull %.02439, ptr noundef nonnull @.str.2) #6
  %.not33 = icmp eq ptr %19, null
  br i1 %.not33, label %20, label %22

20:                                               ; preds = %.thread36
  %21 = load ptr, ptr @Curl_cfree, align 8, !tbaa !3
  call void %21(ptr noundef %10) #6
  br label %.thread40

.thread40:                                        ; preds = %20, %11
  %.023.ph = phi i32 [ -1, %20 ], [ 1, %11 ]
  call void @llvm.lifetime.end.p0(i64 1024, ptr nonnull %6) #6
  br label %28

22:                                               ; preds = %.thread36
  %23 = call fastcc i32 @parsenetrc(ptr noundef %0, ptr noundef %1, ptr noundef %2, ptr noundef %3, ptr noundef %19)
  %24 = load ptr, ptr @Curl_cfree, align 8, !tbaa !3
  call void %24(ptr noundef nonnull %19) #6
  %25 = load ptr, ptr @Curl_cfree, align 8, !tbaa !3
  call void %25(ptr noundef %10) #6
  call void @llvm.lifetime.end.p0(i64 1024, ptr nonnull %6) #6
  br label %28

26:                                               ; preds = %5
  %27 = tail call fastcc i32 @parsenetrc(ptr noundef %0, ptr noundef %1, ptr noundef %2, ptr noundef %3, ptr noundef %4)
  br label %28

28:                                               ; preds = %22, %.thread40, %26
  %.1 = phi i32 [ %27, %26 ], [ %23, %22 ], [ %.023.ph, %.thread40 ]
  ret i32 %.1
}